Certificate:
    Data:
        Version: 3 (0x2)
        Serial Number: 1 (0x1)
        Signature Algorithm: sha256WithRSAEncryption
        Issuer: DC=ca, DC=lab5, O=Lab5 DevOps Inc., OU=www.lab5.ca, CN=Root CA 2022
        Validity
            Not Before: Jun 22 18:55:21 2022 GMT
            Not After : Jun 21 18:55:21 2032 GMT
        Subject: DC=ca, DC=lab5, O=Lab5 DevOps Inc., OU=www.lab5.ca, CN=Root CA 2022
        Subject Public Key Info:
            Public Key Algorithm: rsaEncryption
                RSA Public-Key: (2048 bit)
                Modulus:
                    00:ae:3d:88:cb:0d:95:12:f7:ba:84:85:50:08:c4:
                    70:4c:85:02:e6:2a:c4:bc:3e:55:5f:4f:b5:04:79:
                    79:b0:1e:19:17:bc:08:aa:4c:5e:e0:3b:e4:55:75:
                    ea:95:ae:4b:22:64:f7:63:3b:22:a4:9f:5f:a4:1e:
                    41:d0:48:68:63:b1:b1:02:9c:8d:04:a4:6c:08:ad:
                    4f:39:c7:1f:ed:be:30:91:ab:f1:4b:96:71:39:71:
                    ea:46:75:71:22:15:16:e2:a3:56:30:b6:55:55:e9:
                    54:d6:3a:cd:ba:ce:8e:73:ae:76:ab:04:b2:8d:c2:
                    7f:c2:88:cb:fe:93:37:bf:d4:c2:8b:48:38:69:16:
                    33:7a:4a:b1:ec:54:ad:ca:f8:f7:d2:db:40:54:4b:
                    84:f7:4a:2e:51:f2:0c:98:6b:47:9d:7a:03:a6:6d:
                    b9:be:9b:c5:ff:69:1b:dd:1c:13:d1:9b:b3:c6:f5:
                    11:e0:e1:0d:a0:74:00:38:2d:cf:12:57:47:6b:29:
                    fd:80:0c:06:a0:03:b8:72:0a:9d:f8:c1:ba:00:f0:
                    c1:f4:dd:8d:26:d2:c5:09:11:c6:65:85:76:40:ee:
                    00:a0:74:ae:b5:4e:06:41:da:1d:a0:4d:20:3f:f2:
                    a4:b8:0a:2d:fd:9b:dc:4b:fc:d2:74:f2:45:21:99:
                    da:01
                Exponent: 65537 (0x10001)
        X509v3 extensions:
            X509v3 Key Usage: critical
                Certificate Sign, CRL Sign
            X509v3 Basic Constraints: critical
                CA:TRUE
            X509v3 Subject Key Identifier: 
                26:0E:49:04:43:F8:FC:DE:CD:72:D4:B7:DA:07:07:2F:52:13:EE:33
            X509v3 Authority Key Identifier: 
                keyid:26:0E:49:04:43:F8:FC:DE:CD:72:D4:B7:DA:07:07:2F:52:13:EE:33

    Signature Algorithm: sha256WithRSAEncryption
         35:9f:a7:eb:0b:73:ce:9b:2a:cc:a2:4e:0e:3f:4a:1a:30:6b:
         29:82:40:31:9b:f9:dc:00:87:e1:7a:13:8a:bb:a8:39:86:d3:
         e8:fc:e8:78:b7:f4:e7:16:f3:c3:87:ab:b4:56:c0:82:fc:37:
         19:78:f8:95:bc:78:ce:26:27:b5:85:14:04:7f:77:a2:26:f8:
         90:59:73:b9:a2:22:e2:91:d1:b5:95:52:64:c5:dd:48:4a:00:
         08:2d:5f:cd:da:dc:14:de:38:8f:12:0b:ca:b1:1a:dc:3b:4e:
         0a:1c:fc:34:cb:c5:2a:2a:aa:f2:66:95:82:02:a5:2d:fb:f0:
         fc:d6:d7:5d:83:6c:f8:5b:eb:60:78:25:2b:ef:73:88:09:a7:
         54:a2:a4:3d:6f:18:81:43:7f:0b:01:99:de:d7:b7:3b:83:93:
         9b:91:7d:4a:30:86:da:b2:ff:be:d1:7c:c9:d7:41:4d:ba:0a:
         57:05:18:f3:6f:03:dd:9e:77:74:1a:11:f3:d6:c8:80:93:21:
         bd:af:b4:a6:06:b9:2b:2f:1a:c8:e7:45:cb:cf:69:47:b4:2f:
         ee:11:9d:aa:b0:c4:60:cc:75:50:2d:29:2b:6b:46:03:05:c6:
         c3:08:5d:4c:91:49:f1:a9:19:1f:81:61:22:6a:84:46:83:b1:
         34:d9:9a:e2
-----BEGIN CERTIFICATE-----
MIIDwjCCAqqgAwIBAgIBATANBgkqhkiG9w0BAQsFADByMRIwEAYKCZImiZPyLGQB
GRYCY2ExFDASBgoJkiaJk/IsZAEZFgRsYWI1MRkwFwYDVQQKDBBMYWI1IERldk9w
cyBJbmMuMRQwEgYDVQQLDAt3d3cubGFiNS5jYTEVMBMGA1UEAwwMUm9vdCBDQSAy
MDIyMB4XDTIyMDYyMjE4NTUyMVoXDTMyMDYyMTE4NTUyMVowcjESMBAGCgmSJomT
8ixkARkWAmNhMRQwEgYKCZImiZPyLGQBGRYEbGFiNTEZMBcGA1UECgwQTGFiNSBE
ZXZPcHMgSW5jLjEUMBIGA1UECwwLd3d3LmxhYjUuY2ExFTATBgNVBAMMDFJvb3Qg
Q0EgMjAyMjCCASIwDQYJKoZIhvcNAQEBBQADggEPADCCAQoCggEBAK49iMsNlRL3
uoSFUAjEcEyFAuYqxLw+VV9PtQR5ebAeGRe8CKpMXuA75FV16pWuSyJk92M7IqSf
X6QeQdBIaGOxsQKcjQSkbAitTznHH+2+MJGr8UuWcTlx6kZ1cSIVFuKjVjC2VVXp
VNY6zbrOjnOudqsEso3Cf8KIy/6TN7/UwotIOGkWM3pKsexUrcr499LbQFRLhPdK
LlHyDJhrR516A6Ztub6bxf9pG90cE9Gbs8b1EeDhDaB0ADgtzxJXR2sp/YAMBqAD
uHIKnfjBugDwwfTdjSbSxQkRxmWFdkDuAKB0rrVOBkHaHaBNID/ypLgKLf2b3Ev8
0nTyRSGZ2gECAwEAAaNjMGEwDgYDVR0PAQH/BAQDAgEGMA8GA1UdEwEB/wQFMAMB
Af8wHQYDVR0OBBYEFCYOSQRD+PzezXLUt9oHBy9SE+4zMB8GA1UdIwQYMBaAFCYO
SQRD+PzezXLUt9oHBy9SE+4zMA0GCSqGSIb3DQEBCwUAA4IBAQA1n6frC3POmyrM
ok4OP0oaMGspgkAxm/ncAIfhehOKu6g5htPo/Oh4t/TnFvPDh6u0VsCC/DcZePiV
vHjOJie1hRQEf3eiJviQWXO5oiLikdG1lVJkxd1ISgAILV/N2twU3jiPEgvKsRrc
O04KHPw0y8UqKqryZpWCAqUt+/D81tddg2z4W+tgeCUr73OICadUoqQ9bxiBQ38L
AZne17c7g5ObkX1KMIbasv++0XzJ10FNugpXBRjzbwPdnnd0GhHz1siAkyG9r7Sm
BrkrLxrI50XLz2lHtC/uEZ2qsMRgzHVQLSkra0YDBcbDCF1MkUnxqRkfgWEiaoRG
g7E02Zri
-----END CERTIFICATE-----
